target datalayout = "e-m:e-p270:32:32-p271:32:32-p272:64:64-i64:64-i128:128-f80:128-n8:16:32:64-S128"
target triple = "x86_64-pc-linux-gnu"

@.str.39 = private unnamed_addr constant [1 x i8] zeroinitializer, align 1
@.str.50 = private unnamed_addr constant [2 x i8] c" \00", align 1
@output_fields = internal global ptr null, align 8
@.str.130 = private unnamed_addr constant [92 x i8] c"%s was already specified with different filter flags. Overwriting previous protocol filter.\00", align 1

; Function Attrs: null_pointer_is_valid sspstrong uwtable
define internal zeroext i1 @protocolfilter_add_opt(ptr noundef %0, i32 noundef %1) #0 {
  %3 = alloca ptr, align 8
  %4 = alloca i32, align 4
  %5 = alloca ptr, align 8
  store ptr %0, ptr %3, align 8
  store i32 %1, ptr %4, align 4
  call void @llvm.lifetime.start.p0(i64 8, ptr %5) #19
  store ptr null, ptr %5, align 8
  %6 = call ptr @wmem_epan_scope()
  %7 = load ptr, ptr %3, align 8
  %8 = call ptr @wmem_strsplit(ptr noundef %6, ptr noundef %7, ptr noundef @.str.50, i32 noundef -1)
  store ptr %8, ptr %5, align 8
  br label %9

9:                                                ; preds = %29, %2
  %10 = load ptr, ptr %5, align 8
  %11 = load ptr, ptr %10, align 8
  %12 = icmp ne ptr %11, null
  br i1 %12, label %13, label %32

13:                                               ; preds = %9
  %14 = load ptr, ptr %5, align 8
  %15 = load ptr, ptr %14, align 8
  %16 = call i32 @strcmp(ptr noundef %15, ptr noundef @.str.39) #21
  %17 = icmp eq i32 %16, 0
  br i1 %17, label %18, label %19

18:                                               ; preds = %13
  br label %29

19:                                               ; preds = %13
  %20 = load ptr, ptr @output_fields, align 8
  %21 = load ptr, ptr %5, align 8
  %22 = load ptr, ptr %21, align 8
  %23 = load i32, ptr %4, align 4
  %24 = call zeroext i1 @output_fields_add_protocolfilter(ptr noundef %20, ptr noundef %22, i32 noundef %23)
  br i1 %24, label %28, label %25

25:                                               ; preds = %19
  %26 = load ptr, ptr %5, align 8
  %27 = load ptr, ptr %26, align 8
  call void (ptr, ...) @cmdarg_err(ptr noundef @.str.130, ptr noundef %27)
  br label %28

28:                                               ; preds = %25, %19
  br label %29

29:                                               ; preds = %28, %18
  %30 = load ptr, ptr %5, align 8
  %31 = getelementptr ptr, ptr %30, i32 1
  store ptr %31, ptr %5, align 8
  br label %9, !llvm.loop !17

32:                                               ; preds = %9
  call void @llvm.lifetime.end.p0(i64 8, ptr %5) #19
  ret i1 true
}