; Function Attrs: null_pointer_is_valid sspstrong uwtable
define internal fastcc void @protocolfilter_add_opt(ptr noundef %0, i32 noundef range(i32 0, 2) %1) unnamed_addr #0 {
  %3 = tail call ptr @wmem_epan_scope()
  %4 = tail call ptr @wmem_strsplit(ptr noundef %3, ptr noundef %0, ptr noundef nonnull @.str.50, i32 noundef -1)
  %5 = load ptr, ptr %4, align 8
  %.not7 = icmp eq ptr %5, null
  br i1 %.not7, label %._crit_edge, label %.lr.ph

.lr.ph:                                           ; preds = %2, %13
  %6 = phi ptr [ %15, %13 ], [ %5, %2 ]
  %.08 = phi ptr [ %14, %13 ], [ %4, %2 ]
  %strcmpload = load i8, ptr %6, align 1
  %7 = icmp eq i8 %strcmpload, 0
  br i1 %7, label %13, label %8

8:                                                ; preds = %.lr.ph
  %9 = load ptr, ptr @output_fields, align 8
  %10 = tail call zeroext i1 @output_fields_add_protocolfilter(ptr noundef %9, ptr noundef nonnull %6, i32 noundef %1)
  br i1 %10, label %13, label %11

11:                                               ; preds = %8
  %12 = load ptr, ptr %.08, align 8
  tail call void (ptr, ...) @cmdarg_err(ptr noundef nonnull @.str.130, ptr noundef %12)
  br label %13

13:                                               ; preds = %8, %11, %.lr.ph
  %14 = getelementptr i8, ptr %.08, i64 8
  %15 = load ptr, ptr %14, align 8
  %.not = icmp eq ptr %15, null
  br i1 %.not, label %._crit_edge, label %.lr.ph, !llvm.loop !17

._crit_edge:                                      ; preds = %13, %2
  ret void
}